target datalayout = "e-m:e-p270:32:32-p271:32:32-p272:64:64-i64:64-i128:128-f80:128-n8:16:32:64-S128"
target triple = "x86_64-unknown-linux-gnu"

%"class.Assimp::FBX::Parser" = type <{ ptr, ptr, ptr, ptr, %"class.__gnu_cxx::__normal_iterator", ptr, i8, [7 x i8] }>
%"class.__gnu_cxx::__normal_iterator" = type { ptr }

@_ZN6Assimp3FBX5ScopeD1Ev = hidden unnamed_addr alias void (ptr), ptr @_ZN6Assimp3FBX5ScopeD2Ev

; Function Attrs: mustprogress nounwind uwtable
define hidden void @_ZN6Assimp3FBX6ParserD2Ev(ptr noundef nonnull align 8 dereferenceable(49) %this) unnamed_addr #0 align 2 {
entry:
  %this.addr = alloca ptr, align 8
  store ptr %this, ptr %this.addr, align 8
  %this1 = load ptr, ptr %this.addr, align 8
  %root = getelementptr inbounds %"class.Assimp::FBX::Parser", ptr %this1, i32 0, i32 5
  %0 = load ptr, ptr %root, align 8
  call void @_ZN6Assimp3FBX5ScopeD1Ev(ptr noundef nonnull align 8 dereferenceable(48) %0) #5
  ret void
}