; Function Attrs: mustprogress nounwind uwtable
define hidden void @_ZN6Assimp3FBX6ParserD2Ev(ptr nocapture noundef nonnull readonly align 8 dereferenceable(49) %this) unnamed_addr #7 align 2 personality ptr @__gxx_personality_v0 {
entry:
  %root = getelementptr inbounds i8, ptr %this, i64 40
  %0 = load ptr, ptr %root, align 8
  %_M_left.i.i.i = getelementptr inbounds i8, ptr %0, i64 24
  %1 = load ptr, ptr %_M_left.i.i.i, align 8
  %add.ptr.i.i.i = getelementptr inbounds i8, ptr %0, i64 8
  %cmp.i.not4.i = icmp eq ptr %1, %add.ptr.i.i.i
  br i1 %cmp.i.not4.i, label %for.end.i, label %for.body.i

for.body.i:                                       ; preds = %entry, %for.body.i
  %__begin2.sroa.0.05.i = phi ptr [ %call.i.i, %for.body.i ], [ %1, %entry ]
  %second.i = getelementptr inbounds i8, ptr %__begin2.sroa.0.05.i, i64 64
  %2 = load ptr, ptr %second.i, align 8
  tail call void @_ZN6Assimp3FBX7ElementD2Ev(ptr noundef nonnull align 8 dereferenceable(40) %2) #21
  %call.i.i = tail call noundef ptr @_ZSt18_Rb_tree_incrementPSt18_Rb_tree_node_base(ptr noundef %__begin2.sroa.0.05.i) #25
  %cmp.i.not.i = icmp eq ptr %call.i.i, %add.ptr.i.i.i
  br i1 %cmp.i.not.i, label %for.end.i, label %for.body.i

for.end.i:                                        ; preds = %for.body.i, %entry
  %_M_parent.i.i.i.i.i = getelementptr inbounds i8, ptr %0, i64 16
  %3 = load ptr, ptr %_M_parent.i.i.i.i.i, align 8
  invoke void @_ZNSt8_Rb_treeINSt7__cxx1112basic_stringIcSt11char_traitsIcESaIcEEESt4pairIKS5_PN6Assimp3FBX7ElementEESt10_Select1stISC_ESt4lessIS5_ESaISC_EE8_M_eraseEPSt13_Rb_tree_nodeISC_E(ptr noundef nonnull align 8 dereferenceable(48) %0, ptr noundef %3)
          to label %_ZN6Assimp3FBX5ScopeD2Ev.exit unwind label %terminate.lpad.i.i.i

terminate.lpad.i.i.i:                             ; preds = %for.end.i
  %4 = landingpad { ptr, i32 }
          catch ptr null
  %5 = extractvalue { ptr, i32 } %4, 0
  tail call void @__clang_call_terminate(ptr %5) #26
  unreachable

_ZN6Assimp3FBX5ScopeD2Ev.exit:                    ; preds = %for.end.i
  ret void
}